target datalayout = "e-m:e-p270:32:32-p271:32:32-p272:64:64-i64:64-i128:128-f80:128-n8:16:32:64-S128"
target triple = "x86_64-pc-linux-gnu"

@_ZN9Arguments14_vfprintf_hookE = external global ptr, align 8

; Function Attrs: mustprogress nounwind uwtable
define linkonce_odr hidden noundef ptr @_ZN9Arguments13vfprintf_hookEv() #1 comdat align 2 {
  %1 = load ptr, ptr @_ZN9Arguments14_vfprintf_hookE, align 8
  ret ptr %1
}

; Function Attrs: mustprogress nounwind uwtable
define i32 @jio_vfprintf(ptr noundef %0, ptr noundef %1, ptr noundef %2) #1 {
  %4 = alloca i32, align 4
  %5 = alloca ptr, align 8
  %6 = alloca ptr, align 8
  %7 = alloca ptr, align 8
  store ptr %0, ptr %5, align 8
  store ptr %1, ptr %6, align 8
  store ptr %2, ptr %7, align 8
  %8 = call noundef ptr @_ZN9Arguments13vfprintf_hookEv()
  %9 = icmp ne ptr %8, null
  br i1 %9, label %10, label %16

10:                                               ; preds = %3
  %11 = call noundef ptr @_ZN9Arguments13vfprintf_hookEv()
  %12 = load ptr, ptr %5, align 8
  %13 = load ptr, ptr %6, align 8
  %14 = load ptr, ptr %7, align 8
  %15 = call noundef i32 %11(ptr noundef %12, ptr noundef %13, ptr noundef %14)
  store i32 %15, ptr %4, align 4
  br label %21

16:                                               ; preds = %3
  %17 = load ptr, ptr %5, align 8
  %18 = load ptr, ptr %6, align 8
  %19 = load ptr, ptr %7, align 8
  %20 = call i32 @vfprintf(ptr noundef %17, ptr noundef %18, ptr noundef %19) #6
  store i32 %20, ptr %4, align 4
  br label %21

21:                                               ; preds = %16, %10
  %22 = load i32, ptr %4, align 4
  ret i32 %22
}