; Function Attrs: mustprogress nounwind uwtable
define noundef i32 @jio_vfprintf(ptr noundef %0, ptr noundef %1, ptr noundef %2) local_unnamed_addr #0 {
  %4 = load ptr, ptr @_ZN9Arguments14_vfprintf_hookE, align 8
  %.not = icmp eq ptr %4, null
  br i1 %.not, label %7, label %5

5:                                                ; preds = %3
  %6 = tail call noundef i32 %4(ptr noundef %0, ptr noundef %1, ptr noundef %2) #16
  br label %9

7:                                                ; preds = %3
  %8 = tail call i32 @vfprintf(ptr noundef %0, ptr noundef %1, ptr noundef %2) #16
  br label %9

9:                                                ; preds = %7, %5
  %.0 = phi i32 [ %6, %5 ], [ %8, %7 ]
  ret i32 %.0
}